; Function Attrs: null_pointer_is_valid sspstrong uwtable
define hidden i32 @mapi_dissect_struct_CreateBookmark_repl(ptr noundef %0, i32 noundef %1, ptr noundef %2, ptr noundef %3, ptr noundef %4, ptr noundef %5, i32 noundef %6, i32 %7) local_unnamed_addr #0 {
  %9 = getelementptr inbounds nuw i8, ptr %4, i64 26
  %10 = load i8, ptr %9, align 2, !range !9, !noundef !10
  store i8 1, ptr %9, align 2
  %.not = icmp eq ptr %3, null
  br i1 %.not, label %mapi_dissect_element_CreateBookmark_repl_bookmark.exit, label %11

11:                                               ; preds = %8
  %12 = tail call ptr @proto_tree_add_item(ptr noundef nonnull %3, i32 noundef %6, ptr noundef %0, i32 noundef %1, i32 noundef -1, i32 noundef 0)
  %13 = load i32, ptr @ett_mapi_CreateBookmark_repl, align 4
  %14 = tail call ptr @proto_item_add_subtree(ptr noundef %12, i32 noundef %13)
  %15 = load i32, ptr @hf_mapi_CreateBookmark_repl_bookmark, align 4
  %16 = load i8, ptr %9, align 2, !range !9, !noundef !10
  store i8 1, ptr %9, align 2
  %.not.i.i = icmp eq ptr %14, null
  br i1 %.not.i.i, label %mapi_dissect_element_CreateBookmark_repl_bookmark.exit, label %17

17:                                               ; preds = %11
  %18 = tail call ptr @proto_tree_add_item(ptr noundef nonnull %14, i32 noundef %15, ptr noundef %0, i32 noundef %1, i32 noundef -1, i32 noundef 0)
  %19 = load i32, ptr @ett_mapi_SBinary_short, align 4
  %20 = tail call ptr @proto_item_add_subtree(ptr noundef %18, i32 noundef %19)
  br label %mapi_dissect_element_CreateBookmark_repl_bookmark.exit

mapi_dissect_element_CreateBookmark_repl_bookmark.exit: ; preds = %8, %11, %17
  %21 = phi i8 [ %16, %17 ], [ %16, %11 ], [ 1, %8 ]
  %.025 = phi ptr [ %12, %17 ], [ %12, %11 ], [ null, %8 ]
  %.026.i.i = phi ptr [ %20, %17 ], [ null, %11 ], [ null, %8 ]
  %.0.i.i = phi ptr [ %18, %17 ], [ null, %11 ], [ null, %8 ]
  %22 = load i32, ptr @hf_mapi_SBinary_short_cb, align 4
  %23 = tail call i32 @PIDL_dissect_uint16(ptr noundef %0, i32 noundef %1, ptr noundef %2, ptr noundef %.026.i.i, ptr noundef %4, ptr noundef %5, i32 noundef %22, i32 noundef 0)
  %24 = tail call i32 @dissect_ndr_ucarray(ptr noundef %0, i32 noundef %23, ptr noundef %2, ptr noundef %.026.i.i, ptr noundef %4, ptr noundef %5, ptr noundef nonnull @mapi_dissect_element_SBinary_short_lpb_)
  %25 = sub i32 %24, %1
  tail call void @proto_item_set_len(ptr noundef %.0.i.i, i32 noundef %25)
  store i8 %21, ptr %9, align 2
  tail call void @proto_item_set_len(ptr noundef %.025, i32 noundef %25)
  store i8 %10, ptr %9, align 2
  ret i32 %24
}